target datalayout = "e-m:e-p270:32:32-p271:32:32-p272:64:64-i64:64-i128:128-f80:128-n8:16:32:64-S128"
target triple = "x86_64-pc-linux-gnu"

%struct.rb_data_type_struct = type { ptr, %struct.anon.2, ptr, ptr, i64 }
%struct.anon.2 = type { ptr, ptr, ptr, ptr, [1 x ptr] }
%struct.rb_memory_view_t = type { i64, ptr, i64, i8, ptr, i64, %struct.anon, i64, ptr, ptr, ptr, ptr, ptr }
%struct.anon = type { ptr, i64 }

@rb_memory_view_exported_object_registry = external global i64, align 8
@rb_memory_view_exported_object_registry_data_type = external constant %struct.rb_data_type_struct, align 8

; Function Attrs: inlinehint nounwind sspstrong willreturn memory(none) uwtable
define internal i64 @RB_INT2FIX(i64 noundef %0) #4 {
  %2 = alloca i64, align 8
  %3 = alloca i64, align 8
  %4 = alloca i64, align 8
  %5 = alloca i64, align 8
  %6 = alloca i64, align 8
  %7 = alloca i64, align 8
  store i64 %0, ptr %2, align 8, !tbaa !6
  call void @llvm.lifetime.start.p0(i64 8, ptr %3) #20
  %8 = load i64, ptr %2, align 8, !tbaa !6
  store i64 %8, ptr %3, align 8, !tbaa !6
  call void @llvm.lifetime.start.p0(i64 8, ptr %4) #20
  %9 = load i64, ptr %3, align 8, !tbaa !6
  %10 = shl i64 %9, 1
  %11 = add i64 %10, 1
  store i64 %11, ptr %4, align 8, !tbaa !6
  call void @llvm.lifetime.start.p0(i64 8, ptr %5) #20
  %12 = load i64, ptr %4, align 8, !tbaa !6
  store i64 %12, ptr %5, align 8, !tbaa !6
  call void @llvm.lifetime.start.p0(i64 8, ptr %6) #20
  %13 = load i64, ptr %5, align 8, !tbaa !6
  store i64 %13, ptr %6, align 8, !tbaa !6
  call void @llvm.lifetime.start.p0(i64 8, ptr %7) #20
  %14 = load i64, ptr %6, align 8, !tbaa !6
  store i64 %14, ptr %7, align 8, !tbaa !6
  %15 = load i64, ptr %7, align 8, !tbaa !6
  call void @llvm.lifetime.end.p0(i64 8, ptr %7) #20
  call void @llvm.lifetime.end.p0(i64 8, ptr %6) #20
  call void @llvm.lifetime.end.p0(i64 8, ptr %5) #20
  call void @llvm.lifetime.end.p0(i64 8, ptr %4) #20
  call void @llvm.lifetime.end.p0(i64 8, ptr %3) #20
  ret i64 %15
}

; Function Attrs: inlinehint nounwind sspstrong uwtable
define internal i64 @rb_ull2num_inline(i64 noundef %0) #5 {
  %2 = alloca i64, align 8
  %3 = alloca i64, align 8
  store i64 %0, ptr %3, align 8, !tbaa !44
  %4 = load i64, ptr %3, align 8, !tbaa !44
  %5 = icmp ult i64 %4, 4611686018427387904
  br i1 %5, label %6, label %9

6:                                                ; preds = %1
  %7 = load i64, ptr %3, align 8, !tbaa !44
  %8 = call i64 @RB_INT2FIX(i64 noundef %7) #22
  store i64 %8, ptr %2, align 8
  br label %12

9:                                                ; preds = %1
  %10 = load i64, ptr %3, align 8, !tbaa !44
  %11 = call i64 @rb_ull2inum(i64 noundef %10)
  store i64 %11, ptr %2, align 8
  br label %12

12:                                               ; preds = %9, %6
  %13 = load i64, ptr %2, align 8
  ret i64 %13
}

; Function Attrs: nounwind sspstrong uwtable
define internal i64 @memory_view_get_ref_count(i64 noundef %0) #0 {
  %2 = alloca i64, align 8
  %3 = alloca i64, align 8
  %4 = alloca ptr, align 8
  %5 = alloca i64, align 8
  %6 = alloca i32, align 4
  store i64 %0, ptr %3, align 8, !tbaa !6
  %7 = load i64, ptr @rb_memory_view_exported_object_registry, align 8, !tbaa !6
  %8 = icmp eq i64 %7, 36
  br i1 %8, label %9, label %10

9:                                                ; preds = %1
  store i64 4, ptr %2, align 8
  br label %22

10:                                               ; preds = %1
  call void @llvm.lifetime.start.p0(i64 8, ptr %4) #20
  %11 = load i64, ptr @rb_memory_view_exported_object_registry, align 8, !tbaa !6
  %12 = call ptr @rb_check_typeddata(i64 noundef %11, ptr noundef @rb_memory_view_exported_object_registry_data_type)
  store ptr %12, ptr %4, align 8, !tbaa !52
  call void @llvm.lifetime.start.p0(i64 8, ptr %5) #20
  %13 = load ptr, ptr %4, align 8, !tbaa !52
  %14 = load i64, ptr %3, align 8, !tbaa !6
  %15 = call i32 @rb_st_lookup(ptr noundef %13, i64 noundef %14, ptr noundef %5)
  %16 = icmp ne i32 %15, 0
  br i1 %16, label %17, label %20

17:                                               ; preds = %10
  %18 = load i64, ptr %5, align 8, !tbaa !6
  %19 = call i64 @rb_ull2num_inline(i64 noundef %18)
  store i64 %19, ptr %2, align 8
  store i32 1, ptr %6, align 4
  br label %21

20:                                               ; preds = %10
  store i64 4, ptr %2, align 8
  store i32 1, ptr %6, align 4
  br label %21

21:                                               ; preds = %20, %17
  call void @llvm.lifetime.end.p0(i64 8, ptr %5) #20
  call void @llvm.lifetime.end.p0(i64 8, ptr %4) #20
  br label %22

22:                                               ; preds = %21, %9
  %23 = load i64, ptr %2, align 8
  ret i64 %23
}

; Function Attrs: nounwind sspstrong uwtable
define internal i64 @memory_view_ref_count_while_exporting_i(i64 noundef %0, i64 noundef %1) #0 {
  %3 = alloca i64, align 8
  %4 = alloca i64, align 8
  %5 = alloca i64, align 8
  %6 = alloca %struct.rb_memory_view_t, align 8
  %7 = alloca i32, align 4
  %8 = alloca i64, align 8
  store i64 %0, ptr %4, align 8, !tbaa !6
  store i64 %1, ptr %5, align 8, !tbaa !6
  %9 = load i64, ptr %5, align 8, !tbaa !6
  %10 = icmp eq i64 %9, 0
  br i1 %10, label %11, label %14

11:                                               ; preds = %2
  %12 = load i64, ptr %4, align 8, !tbaa !6
  %13 = call i64 @memory_view_get_ref_count(i64 noundef %12)
  store i64 %13, ptr %3, align 8
  br label %26

14:                                               ; preds = %2
  call void @llvm.lifetime.start.p0(i64 112, ptr %6) #20
  %15 = load i64, ptr %4, align 8, !tbaa !6
  %16 = call zeroext i1 @rb_memory_view_get(i64 noundef %15, ptr noundef %6, i32 noundef 0)
  br i1 %16, label %18, label %17

17:                                               ; preds = %14
  store i64 4, ptr %3, align 8
  store i32 1, ptr %7, align 4
  br label %25

18:                                               ; preds = %14
  call void @llvm.lifetime.start.p0(i64 8, ptr %8) #20
  %19 = load i64, ptr %4, align 8, !tbaa !6
  %20 = load i64, ptr %5, align 8, !tbaa !6
  %21 = sub nsw i64 %20, 1
  %22 = call i64 @memory_view_ref_count_while_exporting_i(i64 noundef %19, i64 noundef %21)
  store i64 %22, ptr %8, align 8, !tbaa !6
  %23 = call zeroext i1 @rb_memory_view_release(ptr noundef %6)
  %24 = load i64, ptr %8, align 8, !tbaa !6
  store i64 %24, ptr %3, align 8
  store i32 1, ptr %7, align 4
  call void @llvm.lifetime.end.p0(i64 8, ptr %8) #20
  br label %25

25:                                               ; preds = %18, %17
  call void @llvm.lifetime.end.p0(i64 112, ptr %6) #20
  br label %26

26:                                               ; preds = %25, %11
  %27 = load i64, ptr %3, align 8
  ret i64 %27
}