; Function Attrs: nounwind sspstrong uwtable
define internal fastcc i64 @memory_view_ref_count_while_exporting_i(i64 noundef %0, i64 noundef range(i64 -9223372036854775808, 9223372036854775807) %1) unnamed_addr #0 {
  %3 = alloca i64, align 8
  %4 = alloca %struct.rb_memory_view_t, align 8
  %5 = icmp eq i64 %1, 0
  br i1 %5, label %6, label %20

6:                                                ; preds = %2
  %7 = load i64, ptr @rb_memory_view_exported_object_registry, align 8, !tbaa !6
  %8 = icmp eq i64 %7, 36
  br i1 %8, label %memory_view_get_ref_count.exit, label %9

9:                                                ; preds = %6
  %10 = tail call ptr @rb_check_typeddata(i64 noundef %7, ptr noundef nonnull @rb_memory_view_exported_object_registry_data_type) #9
  call void @llvm.lifetime.start.p0(i64 8, ptr nonnull %3) #9
  %11 = call i32 @rb_st_lookup(ptr noundef %10, i64 noundef %0, ptr noundef nonnull %3) #9
  %.not.i = icmp eq i32 %11, 0
  br i1 %.not.i, label %rb_ull2num_inline.exit.i, label %12

12:                                               ; preds = %9
  %13 = load i64, ptr %3, align 8, !tbaa !6
  %14 = icmp ult i64 %13, 4611686018427387904
  br i1 %14, label %15, label %18

15:                                               ; preds = %12
  %16 = shl nuw nsw i64 %13, 1
  %17 = or disjoint i64 %16, 1
  br label %rb_ull2num_inline.exit.i

18:                                               ; preds = %12
  %19 = call i64 @rb_ull2inum(i64 noundef %13) #9
  br label %rb_ull2num_inline.exit.i

rb_ull2num_inline.exit.i:                         ; preds = %18, %15, %9
  %.1.i = phi i64 [ 4, %9 ], [ %17, %15 ], [ %19, %18 ]
  call void @llvm.lifetime.end.p0(i64 8, ptr nonnull %3) #9
  br label %memory_view_get_ref_count.exit

20:                                               ; preds = %2
  call void @llvm.lifetime.start.p0(i64 112, ptr nonnull %4) #9
  %21 = call zeroext i1 @rb_memory_view_get(i64 noundef %0, ptr noundef nonnull %4, i32 noundef 0) #9
  br i1 %21, label %22, label %26

22:                                               ; preds = %20
  %23 = add nsw i64 %1, -1
  %24 = call fastcc i64 @memory_view_ref_count_while_exporting_i(i64 noundef %0, i64 noundef %23)
  %25 = call zeroext i1 @rb_memory_view_release(ptr noundef nonnull %4) #9
  br label %26

26:                                               ; preds = %20, %22
  %.1 = phi i64 [ %24, %22 ], [ 4, %20 ]
  call void @llvm.lifetime.end.p0(i64 112, ptr nonnull %4) #9
  br label %memory_view_get_ref_count.exit

memory_view_get_ref_count.exit:                   ; preds = %rb_ull2num_inline.exit.i, %6, %26
  %.0 = phi i64 [ %.1, %26 ], [ %.1.i, %rb_ull2num_inline.exit.i ], [ 4, %6 ]
  ret i64 %.0
}